(lp0
(dp1
Vsupercategory
p2
Vperson
p3
sVid
p4
I1
sVname
p5
Vperson
p6
sa(dp7
Vsupercategory
p8
Vvehicle
p9
sVid
p10
I2
sVname
p11
Vbicycle
p12
sa(dp13
Vsupercategory
p14
Vvehicle
p15
sVid
p16
I3
sVname
p17
Vcar
p18
sa(dp19
Vsupercategory
p20
Vvehicle
p21
sVid
p22
I4
sVname
p23
Vmotorcycle
p24
sa(dp25
Vsupercategory
p26
Vvehicle
p27
sVid
p28
I5
sVname
p29
Vairplane
p30
sa(dp31
Vsupercategory
p32
Vvehicle
p33
sVid
p34
I6
sVname
p35
Vbus
p36
sa(dp37
Vsupercategory
p38
Vvehicle
p39
sVid
p40
I7
sVname
p41
Vtrain
p42
sa(dp43
Vsupercategory
p44
Vvehicle
p45
sVid
p46
I8
sVname
p47
Vtruck
p48
sa(dp49
Vsupercategory
p50
Vvehicle
p51
sVid
p52
I9
sVname
p53
Vboat
p54
sa(dp55
Vsupercategory
p56
Voutdoor
p57
sVid
p58
I10
sVname
p59
Vtraffic light
p60
sa(dp61
Vsupercategory
p62
Voutdoor
p63
sVid
p64
I11
sVname
p65
Vfire hydrant
p66
sa(dp67
Vsupercategory
p68
Voutdoor
p69
sVid
p70
I13
sVname
p71
Vstop sign
p72
sa(dp73
Vsupercategory
p74
Voutdoor
p75
sVid
p76
I14
sVname
p77
Vparking meter
p78
sa(dp79
Vsupercategory
p80
Voutdoor
p81
sVid
p82
I15
sVname
p83
Vbench
p84
sa(dp85
Vsupercategory
p86
Vanimal
p87
sVid
p88
I16
sVname
p89
Vbird
p90
sa(dp91
Vsupercategory
p92
Vanimal
p93
sVid
p94
I17
sVname
p95
Vcat
p96
sa(dp97
Vsupercategory
p98
Vanimal
p99
sVid
p100
I18
sVname
p101
Vdog
p102
sa(dp103
Vsupercategory
p104
Vanimal
p105
sVid
p106
I19
sVname
p107
Vhorse
p108
sa(dp109
Vsupercategory
p110
Vanimal
p111
sVid
p112
I20
sVname
p113
Vsheep
p114
sa(dp115
Vsupercategory
p116
Vanimal
p117
sVid
p118
I21
sVname
p119
Vcow
p120
sa(dp121
Vsupercategory
p122
Vanimal
p123
sVid
p124
I22
sVname
p125
Velephant
p126
sa(dp127
Vsupercategory
p128
Vanimal
p129
sVid
p130
I23
sVname
p131
Vbear
p132
sa(dp133
Vsupercategory
p134
Vanimal
p135
sVid
p136
I24
sVname
p137
Vzebra
p138
sa(dp139
Vsupercategory
p140
Vanimal
p141
sVid
p142
I25
sVname
p143
Vgiraffe
p144
sa(dp145
Vsupercategory
p146
Vaccessory
p147
sVid
p148
I27
sVname
p149
Vbackpack
p150
sa(dp151
Vsupercategory
p152
Vaccessory
p153
sVid
p154
I28
sVname
p155
Vumbrella
p156
sa(dp157
Vsupercategory
p158
Vaccessory
p159
sVid
p160
I31
sVname
p161
Vhandbag
p162
sa(dp163
Vsupercategory
p164
Vaccessory
p165
sVid
p166
I32
sVname
p167
Vtie
p168
sa(dp169
Vsupercategory
p170
Vaccessory
p171
sVid
p172
I33
sVname
p173
Vsuitcase
p174
sa(dp175
Vsupercategory
p176
Vsports
p177
sVid
p178
I34
sVname
p179
Vfrisbee
p180
sa(dp181
Vsupercategory
p182
Vsports
p183
sVid
p184
I35
sVname
p185
Vskis
p186
sa(dp187
Vsupercategory
p188
Vsports
p189
sVid
p190
I36
sVname
p191
Vsnowboard
p192
sa(dp193
Vsupercategory
p194
Vsports
p195
sVid
p196
I37
sVname
p197
Vsports ball
p198
sa(dp199
Vsupercategory
p200
Vsports
p201
sVid
p202
I38
sVname
p203
Vkite
p204
sa(dp205
Vsupercategory
p206
Vsports
p207
sVid
p208
I39
sVname
p209
Vbaseball bat
p210
sa(dp211
Vsupercategory
p212
Vsports
p213
sVid
p214
I40
sVname
p215
Vbaseball glove
p216
sa(dp217
Vsupercategory
p218
Vsports
p219
sVid
p220
I41
sVname
p221
Vskateboard
p222
sa(dp223
Vsupercategory
p224
Vsports
p225
sVid
p226
I42
sVname
p227
Vsurfboard
p228
sa(dp229
Vsupercategory
p230
Vsports
p231
sVid
p232
I43
sVname
p233
Vtennis racket
p234
sa(dp235
Vsupercategory
p236
Vkitchen
p237
sVid
p238
I44
sVname
p239
Vbottle
p240
sa(dp241
Vsupercategory
p242
Vkitchen
p243
sVid
p244
I46
sVname
p245
Vwine glass
p246
sa(dp247
Vsupercategory
p248
Vkitchen
p249
sVid
p250
I47
sVname
p251
Vcup
p252
sa(dp253
Vsupercategory
p254
Vkitchen
p255
sVid
p256
I48
sVname
p257
Vfork
p258
sa(dp259
Vsupercategory
p260
Vkitchen
p261
sVid
p262
I49
sVname
p263
Vknife
p264
sa(dp265
Vsupercategory
p266
Vkitchen
p267
sVid
p268
I50
sVname
p269
Vspoon
p270
sa(dp271
Vsupercategory
p272
Vkitchen
p273
sVid
p274
I51
sVname
p275
Vbowl
p276
sa(dp277
Vsupercategory
p278
Vfood
p279
sVid
p280
I52
sVname
p281
Vbanana
p282
sa(dp283
Vsupercategory
p284
Vfood
p285
sVid
p286
I53
sVname
p287
Vapple
p288
sa(dp289
Vsupercategory
p290
Vfood
p291
sVid
p292
I54
sVname
p293
Vsandwich
p294
sa(dp295
Vsupercategory
p296
Vfood
p297
sVid
p298
I55
sVname
p299
Vorange
p300
sa(dp301
Vsupercategory
p302
Vfood
p303
sVid
p304
I56
sVname
p305
Vbroccoli
p306
sa(dp307
Vsupercategory
p308
Vfood
p309
sVid
p310
I57
sVname
p311
Vcarrot
p312
sa(dp313
Vsupercategory
p314
Vfood
p315
sVid
p316
I58
sVname
p317
Vhot dog
p318
sa(dp319
Vsupercategory
p320
Vfood
p321
sVid
p322
I59
sVname
p323
Vpizza
p324
sa(dp325
Vsupercategory
p326
Vfood
p327
sVid
p328
I60
sVname
p329
Vdonut
p330
sa(dp331
Vsupercategory
p332
Vfood
p333
sVid
p334
I61
sVname
p335
Vcake
p336
sa(dp337
Vsupercategory
p338
Vfurniture
p339
sVid
p340
I62
sVname
p341
Vchair
p342
sa(dp343
Vsupercategory
p344
Vfurniture
p345
sVid
p346
I63
sVname
p347
Vcouch
p348
sa(dp349
Vsupercategory
p350
Vfurniture
p351
sVid
p352
I64
sVname
p353
Vpotted plant
p354
sa(dp355
Vsupercategory
p356
Vfurniture
p357
sVid
p358
I65
sVname
p359
Vbed
p360
sa(dp361
Vsupercategory
p362
Vfurniture
p363
sVid
p364
I67
sVname
p365
Vdining table
p366
sa(dp367
Vsupercategory
p368
Vfurniture
p369
sVid
p370
I70
sVname
p371
Vtoilet
p372
sa(dp373
Vsupercategory
p374
Velectronic
p375
sVid
p376
I72
sVname
p377
Vtv
p378
sa(dp379
Vsupercategory
p380
Velectronic
p381
sVid
p382
I73
sVname
p383
Vlaptop
p384
sa(dp385
Vsupercategory
p386
Velectronic
p387
sVid
p388
I74
sVname
p389
Vmouse
p390
sa(dp391
Vsupercategory
p392
Velectronic
p393
sVid
p394
I75
sVname
p395
Vremote
p396
sa(dp397
Vsupercategory
p398
Velectronic
p399
sVid
p400
I76
sVname
p401
Vkeyboard
p402
sa(dp403
Vsupercategory
p404
Velectronic
p405
sVid
p406
I77
sVname
p407
Vcell phone
p408
sa(dp409
Vsupercategory
p410
Vappliance
p411
sVid
p412
I78
sVname
p413
Vmicrowave
p414
sa(dp415
Vsupercategory
p416
Vappliance
p417
sVid
p418
I79
sVname
p419
Voven
p420
sa(dp421
Vsupercategory
p422
Vappliance
p423
sVid
p424
I80
sVname
p425
Vtoaster
p426
sa(dp427
Vsupercategory
p428
Vappliance
p429
sVid
p430
I81
sVname
p431
Vsink
p432
sa(dp433
Vsupercategory
p434
Vappliance
p435
sVid
p436
I82
sVname
p437
Vrefrigerator
p438
sa(dp439
Vsupercategory
p440
Vindoor
p441
sVid
p442
I84
sVname
p443
Vbook
p444
sa(dp445
Vsupercategory
p446
Vindoor
p447
sVid
p448
I85
sVname
p449
Vclock
p450
sa(dp451
Vsupercategory
p452
Vindoor
p453
sVid
p454
I86
sVname
p455
Vvase
p456
sa(dp457
Vsupercategory
p458
Vindoor
p459
sVid
p460
I87
sVname
p461
Vscissors
p462
sa(dp463
Vsupercategory
p464
Vindoor
p465
sVid
p466
I88
sVname
p467
Vteddy bear
p468
sa(dp469
Vsupercategory
p470
Vindoor
p471
sVid
p472
I89
sVname
p473
Vhair drier
p474
sa(dp475
Vsupercategory
p476
Vindoor
p477
sVid
p478
I90
sVname
p479
Vtoothbrush
p480
sa.